target datalayout = "e-m:e-p270:32:32-p271:32:32-p272:64:64-i64:64-i128:128-f80:128-n8:16:32:64-S128"
target triple = "x86_64-pc-linux-gnu"

%struct.alts_iovec_record_protocol = type { ptr, ptr, i64, i8, i8 }
%struct.iovec = type { ptr, i64 }

@.str = private unnamed_addr constant [40 x i8] c"Input iovec_record_protocol is nullptr.\00", align 1
@.str.4 = private unnamed_addr constant [54 x i8] c"Unprotect operations are not allowed for this object.\00", align 1
@.str.6 = private unnamed_addr constant [62 x i8] c"Privacy-integrity operations are not allowed for this object.\00", align 1
@.str.10 = private unnamed_addr constant [58 x i8] c"Protected data length should be more than the tag length.\00", align 1
@.str.11 = private unnamed_addr constant [19 x i8] c"Header is nullptr.\00", align 1
@.str.12 = private unnamed_addr constant [28 x i8] c"Header length is incorrect.\00", align 1
@.str.13 = private unnamed_addr constant [36 x i8] c"Unprotected data size is incorrect.\00", align 1
@.str.14 = private unnamed_addr constant [26 x i8] c" Frame decryption failed.\00", align 1
@.str.15 = private unnamed_addr constant [68 x i8] c"Bytes written expects to be protected data length minus tag length.\00", align 1

; Function Attrs: mustprogress nounwind uwtable
define noundef i64 @_Z44alts_iovec_record_protocol_get_header_lengthv() #0 {
  ret i64 8
}

; Function Attrs: mustprogress nounwind uwtable
define internal noundef i64 @_ZL16get_total_lengthPK5iovecm(ptr noundef %0, i64 noundef %1) #0 {
  %3 = alloca ptr, align 8
  %4 = alloca i64, align 8
  %5 = alloca i64, align 8
  %6 = alloca i64, align 8
  store ptr %0, ptr %3, align 8, !tbaa !15
  store i64 %1, ptr %4, align 8, !tbaa !14
  call void @llvm.lifetime.start.p0(i64 8, ptr %5) #8
  store i64 0, ptr %5, align 8, !tbaa !14
  call void @llvm.lifetime.start.p0(i64 8, ptr %6) #8
  store i64 0, ptr %6, align 8, !tbaa !14
  br label %7

7:                                                ; preds = %20, %2
  %8 = load i64, ptr %6, align 8, !tbaa !14
  %9 = load i64, ptr %4, align 8, !tbaa !14
  %10 = icmp ult i64 %8, %9
  br i1 %10, label %12, label %11

11:                                               ; preds = %7
  call void @llvm.lifetime.end.p0(i64 8, ptr %6) #8
  br label %23

12:                                               ; preds = %7
  %13 = load ptr, ptr %3, align 8, !tbaa !15
  %14 = load i64, ptr %6, align 8, !tbaa !14
  %15 = getelementptr inbounds nuw %struct.iovec, ptr %13, i64 %14
  %16 = getelementptr inbounds nuw %struct.iovec, ptr %15, i32 0, i32 1
  %17 = load i64, ptr %16, align 8, !tbaa !34
  %18 = load i64, ptr %5, align 8, !tbaa !14
  %19 = add i64 %18, %17
  store i64 %19, ptr %5, align 8, !tbaa !14
  br label %20

20:                                               ; preds = %12
  %21 = load i64, ptr %6, align 8, !tbaa !14
  %22 = add i64 %21, 1
  store i64 %22, ptr %6, align 8, !tbaa !14
  br label %7, !llvm.loop !35

23:                                               ; preds = %11
  %24 = load i64, ptr %5, align 8, !tbaa !14
  call void @llvm.lifetime.end.p0(i64 8, ptr %5) #8
  ret i64 %24
}

; Function Attrs: mustprogress uwtable
define noundef i32 @_Z54alts_iovec_record_protocol_privacy_integrity_unprotectP26alts_iovec_record_protocol5iovecPKS1_mS1_PPc(ptr noundef %0, ptr %1, i64 %2, ptr noundef %3, i64 noundef %4, ptr noundef byval(%struct.iovec) align 8 %5, ptr noundef %6) #2 {
  %8 = alloca i32, align 4
  %9 = alloca %struct.iovec, align 8
  %10 = alloca ptr, align 8
  %11 = alloca ptr, align 8
  %12 = alloca i64, align 8
  %13 = alloca ptr, align 8
  %14 = alloca i64, align 8
  %15 = alloca i32, align 4
  %16 = alloca i32, align 4
  %17 = alloca i64, align 8
  %18 = alloca %struct.iovec, align 8
  %19 = getelementptr inbounds nuw { ptr, i64 }, ptr %9, i32 0, i32 0
  store ptr %1, ptr %19, align 8
  %20 = getelementptr inbounds nuw { ptr, i64 }, ptr %9, i32 0, i32 1
  store i64 %2, ptr %20, align 8
  store ptr %0, ptr %10, align 8, !tbaa !3
  store ptr %3, ptr %11, align 8, !tbaa !15
  store i64 %4, ptr %12, align 8, !tbaa !14
  store ptr %6, ptr %13, align 8, !tbaa !17
  %21 = load ptr, ptr %10, align 8, !tbaa !3
  %22 = icmp eq ptr %21, null
  br i1 %22, label %23, label %25

23:                                               ; preds = %7
  %24 = load ptr, ptr %13, align 8, !tbaa !17
  call void @_ZL20maybe_copy_error_msgPKcPPc(ptr noundef @.str, ptr noundef %24)
  store i32 3, ptr %8, align 4
  br label %123

25:                                               ; preds = %7
  %26 = load ptr, ptr %10, align 8, !tbaa !3
  %27 = getelementptr inbounds nuw %struct.alts_iovec_record_protocol, ptr %26, i32 0, i32 3
  %28 = load i8, ptr %27, align 8, !tbaa !20, !range !21, !noundef !22
  %29 = trunc i8 %28 to i1
  br i1 %29, label %30, label %32

30:                                               ; preds = %25
  %31 = load ptr, ptr %13, align 8, !tbaa !17
  call void @_ZL20maybe_copy_error_msgPKcPPc(ptr noundef @.str.6, ptr noundef %31)
  store i32 9, ptr %8, align 4
  br label %123

32:                                               ; preds = %25
  %33 = load ptr, ptr %10, align 8, !tbaa !3
  %34 = getelementptr inbounds nuw %struct.alts_iovec_record_protocol, ptr %33, i32 0, i32 4
  %35 = load i8, ptr %34, align 1, !tbaa !23, !range !21, !noundef !22
  %36 = trunc i8 %35 to i1
  br i1 %36, label %37, label %39

37:                                               ; preds = %32
  %38 = load ptr, ptr %13, align 8, !tbaa !17
  call void @_ZL20maybe_copy_error_msgPKcPPc(ptr noundef @.str.4, ptr noundef %38)
  store i32 9, ptr %8, align 4
  br label %123

39:                                               ; preds = %32
  call void @llvm.lifetime.start.p0(i64 8, ptr %14) #8
  %40 = load ptr, ptr %11, align 8, !tbaa !15
  %41 = load i64, ptr %12, align 8, !tbaa !14
  %42 = call noundef i64 @_ZL16get_total_lengthPK5iovecm(ptr noundef %40, i64 noundef %41)
  store i64 %42, ptr %14, align 8, !tbaa !14
  %43 = load i64, ptr %14, align 8, !tbaa !14
  %44 = load ptr, ptr %10, align 8, !tbaa !3
  %45 = getelementptr inbounds nuw %struct.alts_iovec_record_protocol, ptr %44, i32 0, i32 2
  %46 = load i64, ptr %45, align 8, !tbaa !8
  %47 = icmp ult i64 %43, %46
  br i1 %47, label %48, label %50

48:                                               ; preds = %39
  %49 = load ptr, ptr %13, align 8, !tbaa !17
  call void @_ZL20maybe_copy_error_msgPKcPPc(ptr noundef @.str.10, ptr noundef %49)
  store i32 3, ptr %8, align 4
  store i32 1, ptr %15, align 4
  br label %122

50:                                               ; preds = %39
  %51 = getelementptr inbounds nuw %struct.iovec, ptr %9, i32 0, i32 0
  %52 = load ptr, ptr %51, align 8, !tbaa !28
  %53 = icmp eq ptr %52, null
  br i1 %53, label %54, label %56

54:                                               ; preds = %50
  %55 = load ptr, ptr %13, align 8, !tbaa !17
  call void @_ZL20maybe_copy_error_msgPKcPPc(ptr noundef @.str.11, ptr noundef %55)
  store i32 3, ptr %8, align 4
  store i32 1, ptr %15, align 4
  br label %122

56:                                               ; preds = %50
  %57 = getelementptr inbounds nuw %struct.iovec, ptr %9, i32 0, i32 1
  %58 = load i64, ptr %57, align 8, !tbaa !34
  %59 = call noundef i64 @_Z44alts_iovec_record_protocol_get_header_lengthv()
  %60 = icmp ne i64 %58, %59
  br i1 %60, label %61, label %63

61:                                               ; preds = %56
  %62 = load ptr, ptr %13, align 8, !tbaa !17
  call void @_ZL20maybe_copy_error_msgPKcPPc(ptr noundef @.str.12, ptr noundef %62)
  store i32 3, ptr %8, align 4
  store i32 1, ptr %15, align 4
  br label %122

63:                                               ; preds = %56
  %64 = getelementptr inbounds nuw %struct.iovec, ptr %5, i32 0, i32 1
  %65 = load i64, ptr %64, align 8, !tbaa !34
  %66 = load i64, ptr %14, align 8, !tbaa !14
  %67 = load ptr, ptr %10, align 8, !tbaa !3
  %68 = getelementptr inbounds nuw %struct.alts_iovec_record_protocol, ptr %67, i32 0, i32 2
  %69 = load i64, ptr %68, align 8, !tbaa !8
  %70 = sub i64 %66, %69
  %71 = icmp ne i64 %65, %70
  br i1 %71, label %72, label %74

72:                                               ; preds = %63
  %73 = load ptr, ptr %13, align 8, !tbaa !17
  call void @_ZL20maybe_copy_error_msgPKcPPc(ptr noundef @.str.13, ptr noundef %73)
  store i32 3, ptr %8, align 4
  store i32 1, ptr %15, align 4
  br label %122

74:                                               ; preds = %63
  call void @llvm.lifetime.start.p0(i64 4, ptr %16) #8
  %75 = load i64, ptr %14, align 8, !tbaa !14
  %76 = getelementptr inbounds nuw %struct.iovec, ptr %9, i32 0, i32 0
  %77 = load ptr, ptr %76, align 8, !tbaa !28
  %78 = load ptr, ptr %13, align 8, !tbaa !17
  %79 = call noundef i32 @_ZL19verify_frame_headermPhPPc(i64 noundef %75, ptr noundef %77, ptr noundef %78)
  store i32 %79, ptr %16, align 4, !tbaa !26
  %80 = load i32, ptr %16, align 4, !tbaa !26
  %81 = icmp ne i32 %80, 0
  br i1 %81, label %82, label %84

82:                                               ; preds = %74
  %83 = load i32, ptr %16, align 4, !tbaa !26
  store i32 %83, ptr %8, align 4
  store i32 1, ptr %15, align 4
  br label %121

84:                                               ; preds = %74
  call void @llvm.lifetime.start.p0(i64 8, ptr %17) #8
  store i64 0, ptr %17, align 8, !tbaa !14
  %85 = load ptr, ptr %10, align 8, !tbaa !3
  %86 = getelementptr inbounds nuw %struct.alts_iovec_record_protocol, ptr %85, i32 0, i32 1
  %87 = load ptr, ptr %86, align 8, !tbaa !30
  %88 = load ptr, ptr %10, align 8, !tbaa !3
  %89 = getelementptr inbounds nuw %struct.alts_iovec_record_protocol, ptr %88, i32 0, i32 0
  %90 = load ptr, ptr %89, align 8, !tbaa !31
  %91 = call noundef ptr @_Z24alts_counter_get_counterP12alts_counter(ptr noundef %90)
  %92 = load ptr, ptr %10, align 8, !tbaa !3
  %93 = getelementptr inbounds nuw %struct.alts_iovec_record_protocol, ptr %92, i32 0, i32 0
  %94 = load ptr, ptr %93, align 8, !tbaa !31
  %95 = call noundef i64 @_Z21alts_counter_get_sizeP12alts_counter(ptr noundef %94)
  %96 = load ptr, ptr %11, align 8, !tbaa !15
  %97 = load i64, ptr %12, align 8, !tbaa !14
  call void @llvm.memcpy.p0.p0.i64(ptr align 8 %18, ptr align 8 %5, i64 16, i1 false), !tbaa.struct !24
  %98 = load ptr, ptr %13, align 8, !tbaa !17
  %99 = call noundef i32 @_Z31gsec_aead_crypter_decrypt_iovecP17gsec_aead_crypterPKhmPK5iovecmS5_mS3_PmPPc(ptr noundef %87, ptr noundef %91, i64 noundef %95, ptr noundef null, i64 noundef 0, ptr noundef %96, i64 noundef %97, ptr noundef byval(%struct.iovec) align 8 %18, ptr noundef %17, ptr noundef %98)
  store i32 %99, ptr %16, align 4, !tbaa !26
  %100 = load i32, ptr %16, align 4, !tbaa !26
  %101 = icmp ne i32 %100, 0
  br i1 %101, label %102, label %104

102:                                              ; preds = %84
  %103 = load ptr, ptr %13, align 8, !tbaa !17
  call void @_ZL22maybe_append_error_msgPKcPPc(ptr noundef @.str.14, ptr noundef %103)
  store i32 13, ptr %8, align 4
  store i32 1, ptr %15, align 4
  br label %120

104:                                              ; preds = %84
  %105 = load i64, ptr %17, align 8, !tbaa !14
  %106 = load i64, ptr %14, align 8, !tbaa !14
  %107 = load ptr, ptr %10, align 8, !tbaa !3
  %108 = getelementptr inbounds nuw %struct.alts_iovec_record_protocol, ptr %107, i32 0, i32 2
  %109 = load i64, ptr %108, align 8, !tbaa !8
  %110 = sub i64 %106, %109
  %111 = icmp ne i64 %105, %110
  br i1 %111, label %112, label %114

112:                                              ; preds = %104
  %113 = load ptr, ptr %13, align 8, !tbaa !17
  call void @_ZL20maybe_copy_error_msgPKcPPc(ptr noundef @.str.15, ptr noundef %113)
  store i32 13, ptr %8, align 4
  store i32 1, ptr %15, align 4
  br label %120

114:                                              ; preds = %104
  %115 = load ptr, ptr %10, align 8, !tbaa !3
  %116 = getelementptr inbounds nuw %struct.alts_iovec_record_protocol, ptr %115, i32 0, i32 0
  %117 = load ptr, ptr %116, align 8, !tbaa !31
  %118 = load ptr, ptr %13, align 8, !tbaa !17
  %119 = call noundef i32 @_ZL17increment_counterP12alts_counterPPc(ptr noundef %117, ptr noundef %118)
  store i32 %119, ptr %8, align 4
  store i32 1, ptr %15, align 4
  br label %120

120:                                              ; preds = %114, %112, %102
  call void @llvm.lifetime.end.p0(i64 8, ptr %17) #8
  br label %121

121:                                              ; preds = %120, %82
  call void @llvm.lifetime.end.p0(i64 4, ptr %16) #8
  br label %122

122:                                              ; preds = %121, %72, %61, %54, %48
  call void @llvm.lifetime.end.p0(i64 8, ptr %14) #8
  br label %123

123:                                              ; preds = %122, %37, %30, %23
  %124 = load i32, ptr %8, align 4
  ret i32 %124
}