; Function Attrs: mustprogress uwtable
define noundef i32 @_Z54alts_iovec_record_protocol_privacy_integrity_unprotectP26alts_iovec_record_protocol5iovecPKS1_mS1_PPc(ptr noundef readonly %0, ptr %1, i64 %2, ptr noundef %3, i64 noundef %4, ptr noundef readonly byval(%struct.iovec) align 8 captures(none) %5, ptr noundef %6) local_unnamed_addr #3 {
  %8 = alloca i64, align 8
  %9 = icmp eq ptr %0, null
  br i1 %9, label %10, label %13

10:                                               ; preds = %7
  %.not52 = icmp eq ptr %6, null
  br i1 %.not52, label %_ZL20maybe_copy_error_msgPKcPPc.exit, label %11

11:                                               ; preds = %10
  %12 = tail call ptr @gpr_malloc(i64 noundef 40)
  store ptr %12, ptr %6, align 8, !tbaa !12
  tail call void @llvm.memcpy.p0.p0.i64(ptr noundef nonnull align 1 dereferenceable(40) %12, ptr noundef nonnull align 1 dereferenceable(40) @.str, i64 40, i1 false)
  br label %_ZL20maybe_copy_error_msgPKcPPc.exit

13:                                               ; preds = %7
  %14 = getelementptr inbounds nuw i8, ptr %0, i64 24
  %15 = load i8, ptr %14, align 8, !tbaa !14, !range !15, !noundef !16
  %16 = trunc nuw i8 %15 to i1
  br i1 %16, label %17, label %20

17:                                               ; preds = %13
  %.not51 = icmp eq ptr %6, null
  br i1 %.not51, label %_ZL20maybe_copy_error_msgPKcPPc.exit, label %18

18:                                               ; preds = %17
  %19 = tail call ptr @gpr_malloc(i64 noundef 62)
  store ptr %19, ptr %6, align 8, !tbaa !12
  tail call void @llvm.memcpy.p0.p0.i64(ptr noundef nonnull align 1 dereferenceable(62) %19, ptr noundef nonnull align 1 dereferenceable(62) @.str.6, i64 62, i1 false)
  br label %_ZL20maybe_copy_error_msgPKcPPc.exit

20:                                               ; preds = %13
  %21 = getelementptr inbounds nuw i8, ptr %0, i64 25
  %22 = load i8, ptr %21, align 1, !tbaa !17, !range !15, !noundef !16
  %23 = trunc nuw i8 %22 to i1
  br i1 %23, label %24, label %27

24:                                               ; preds = %20
  %.not50 = icmp eq ptr %6, null
  br i1 %.not50, label %_ZL20maybe_copy_error_msgPKcPPc.exit, label %25

25:                                               ; preds = %24
  %26 = tail call ptr @gpr_malloc(i64 noundef 54)
  store ptr %26, ptr %6, align 8, !tbaa !12
  tail call void @llvm.memcpy.p0.p0.i64(ptr noundef nonnull align 1 dereferenceable(54) %26, ptr noundef nonnull align 1 dereferenceable(54) @.str.4, i64 54, i1 false)
  br label %_ZL20maybe_copy_error_msgPKcPPc.exit

27:                                               ; preds = %20
  %.not.i = icmp eq i64 %4, 0
  br i1 %.not.i, label %_ZL16get_total_lengthPK5iovecm.exit, label %.lr.ph.i

.lr.ph.i:                                         ; preds = %27, %.lr.ph.i
  %.08.i = phi i64 [ %31, %.lr.ph.i ], [ 0, %27 ]
  %.067.i = phi i64 [ %30, %.lr.ph.i ], [ 0, %27 ]
  %28 = getelementptr inbounds nuw %struct.iovec, ptr %3, i64 %.08.i, i32 1
  %29 = load i64, ptr %28, align 8, !tbaa !20
  %30 = add i64 %29, %.067.i
  %31 = add nuw i64 %.08.i, 1
  %exitcond.not.i = icmp eq i64 %31, %4
  br i1 %exitcond.not.i, label %_ZL16get_total_lengthPK5iovecm.exit, label %.lr.ph.i, !llvm.loop !22

_ZL16get_total_lengthPK5iovecm.exit:              ; preds = %.lr.ph.i, %27
  %.06.lcssa.i = phi i64 [ 0, %27 ], [ %30, %.lr.ph.i ]
  %32 = getelementptr inbounds nuw i8, ptr %0, i64 16
  %33 = load i64, ptr %32, align 8, !tbaa !3
  %34 = icmp ult i64 %.06.lcssa.i, %33
  br i1 %34, label %35, label %38

35:                                               ; preds = %_ZL16get_total_lengthPK5iovecm.exit
  %.not49 = icmp eq ptr %6, null
  br i1 %.not49, label %_ZL20maybe_copy_error_msgPKcPPc.exit, label %36

36:                                               ; preds = %35
  %37 = tail call ptr @gpr_malloc(i64 noundef 58)
  store ptr %37, ptr %6, align 8, !tbaa !12
  tail call void @llvm.memcpy.p0.p0.i64(ptr noundef nonnull align 1 dereferenceable(58) %37, ptr noundef nonnull align 1 dereferenceable(58) @.str.10, i64 58, i1 false)
  br label %_ZL20maybe_copy_error_msgPKcPPc.exit

38:                                               ; preds = %_ZL16get_total_lengthPK5iovecm.exit
  %39 = icmp eq ptr %1, null
  br i1 %39, label %40, label %43

40:                                               ; preds = %38
  %.not48 = icmp eq ptr %6, null
  br i1 %.not48, label %_ZL20maybe_copy_error_msgPKcPPc.exit, label %41

41:                                               ; preds = %40
  %42 = tail call ptr @gpr_malloc(i64 noundef 19)
  store ptr %42, ptr %6, align 8, !tbaa !12
  tail call void @llvm.memcpy.p0.p0.i64(ptr noundef nonnull align 1 dereferenceable(19) %42, ptr noundef nonnull align 1 dereferenceable(19) @.str.11, i64 19, i1 false)
  br label %_ZL20maybe_copy_error_msgPKcPPc.exit

43:                                               ; preds = %38
  %.not = icmp eq i64 %2, 8
  br i1 %.not, label %47, label %44

44:                                               ; preds = %43
  %.not47 = icmp eq ptr %6, null
  br i1 %.not47, label %_ZL20maybe_copy_error_msgPKcPPc.exit, label %45

45:                                               ; preds = %44
  %46 = tail call ptr @gpr_malloc(i64 noundef 28)
  store ptr %46, ptr %6, align 8, !tbaa !12
  tail call void @llvm.memcpy.p0.p0.i64(ptr noundef nonnull align 1 dereferenceable(28) %46, ptr noundef nonnull align 1 dereferenceable(28) @.str.12, i64 28, i1 false)
  br label %_ZL20maybe_copy_error_msgPKcPPc.exit

47:                                               ; preds = %43
  %48 = getelementptr inbounds nuw i8, ptr %5, i64 8
  %49 = load i64, ptr %48, align 8, !tbaa !20
  %50 = sub i64 %.06.lcssa.i, %33
  %.not38 = icmp eq i64 %49, %50
  br i1 %.not38, label %52, label %51

51:                                               ; preds = %47
  tail call fastcc void @_ZL20maybe_copy_error_msgPKcPPc(ptr noundef nonnull @.str.13, ptr noundef %6)
  br label %_ZL20maybe_copy_error_msgPKcPPc.exit

52:                                               ; preds = %47
  %53 = tail call fastcc noundef i32 @_ZL19verify_frame_headermPhPPc(i64 noundef %.06.lcssa.i, ptr noundef nonnull %1, ptr noundef %6)
  %.not39 = icmp eq i32 %53, 0
  br i1 %.not39, label %54, label %_ZL20maybe_copy_error_msgPKcPPc.exit

54:                                               ; preds = %52
  call void @llvm.lifetime.start.p0(i64 8, ptr nonnull %8) #11
  store i64 0, ptr %8, align 8, !tbaa !19
  %55 = getelementptr inbounds nuw i8, ptr %0, i64 8
  %56 = load ptr, ptr %55, align 8, !tbaa !25
  %57 = load ptr, ptr %0, align 8, !tbaa !26
  %58 = tail call noundef ptr @_Z24alts_counter_get_counterP12alts_counter(ptr noundef %57)
  %59 = load ptr, ptr %0, align 8, !tbaa !26
  %60 = tail call noundef i64 @_Z21alts_counter_get_sizeP12alts_counter(ptr noundef %59)
  %61 = call noundef i32 @_Z31gsec_aead_crypter_decrypt_iovecP17gsec_aead_crypterPKhmPK5iovecmS5_mS3_PmPPc(ptr noundef %56, ptr noundef %58, i64 noundef %60, ptr noundef null, i64 noundef 0, ptr noundef %3, i64 noundef %4, ptr noundef nonnull byval(%struct.iovec) align 8 %5, ptr noundef nonnull %8, ptr noundef %6)
  %.not40 = icmp eq i32 %61, 0
  br i1 %.not40, label %63, label %62

62:                                               ; preds = %54
  call fastcc void @_ZL22maybe_append_error_msgPKcPPc(ptr noundef nonnull @.str.14, ptr noundef %6)
  br label %71

63:                                               ; preds = %54
  %64 = load i64, ptr %8, align 8, !tbaa !19
  %65 = load i64, ptr %32, align 8, !tbaa !3
  %66 = sub i64 %.06.lcssa.i, %65
  %.not41 = icmp eq i64 %64, %66
  br i1 %.not41, label %68, label %67

67:                                               ; preds = %63
  call fastcc void @_ZL20maybe_copy_error_msgPKcPPc(ptr noundef nonnull @.str.15, ptr noundef %6)
  br label %71

68:                                               ; preds = %63
  %69 = load ptr, ptr %0, align 8, !tbaa !26
  %70 = call fastcc noundef i32 @_ZL17increment_counterP12alts_counterPPc(ptr noundef %69, ptr noundef %6)
  br label %71

71:                                               ; preds = %68, %67, %62
  %.3 = phi i32 [ 13, %62 ], [ 13, %67 ], [ %70, %68 ]
  call void @llvm.lifetime.end.p0(i64 8, ptr nonnull %8) #11
  br label %_ZL20maybe_copy_error_msgPKcPPc.exit

_ZL20maybe_copy_error_msgPKcPPc.exit:             ; preds = %45, %44, %41, %40, %36, %35, %25, %24, %18, %17, %11, %10, %51, %52, %71
  %.0 = phi i32 [ 3, %51 ], [ %.3, %71 ], [ %53, %52 ], [ 3, %10 ], [ 3, %11 ], [ 9, %17 ], [ 9, %18 ], [ 9, %24 ], [ 9, %25 ], [ 3, %35 ], [ 3, %36 ], [ 3, %40 ], [ 3, %41 ], [ 3, %44 ], [ 3, %45 ]
  ret i32 %.0
}